Certificate:
    Data:
        Version: 3 (0x2)
        Serial Number:
            67:87:fa:2e:73:2e:90:75:1f:2e:3f:c9:34:65:fc:90
    Signature Algorithm: sha256WithRSAEncryption
        Issuer: C=CN, ST=Guangdong, O=Zhang, OU=Zhang Ltd CA, CN=Zhang Root CA/emailAddress=gaosandajiang@163.com
        Validity
            Not Before: Oct 28 08:29:37 2019 GMT
            Not After : Oct 23 08:29:37 2039 GMT
        Subject: C=CN, ST=Guangdong, O=Zhang, OU=Zhang Ltd CA, CN=Zhang Root CA/emailAddress=gaosandajiang@163.com
        Subject Public Key Info:
            Public Key Algorithm: rsaEncryption
                Public-Key: (4096 bit)
                Modulus:
                    00:b3:b7:88:61:e0:0b:8c:6a:25:a7:57:34:13:c3:
                    e8:dd:dc:66:b2:c3:4f:1c:95:14:2a:5c:5c:c9:b0:
                    08:f9:c1:01:ff:4c:ff:29:29:b2:df:36:84:ed:ab:
                    c7:b5:75:17:2c:55:35:5e:02:ef:88:73:61:fa:d9:
                    9a:53:c3:6e:ef:92:53:af:46:d6:02:12:e6:e2:a2:
                    30:0b:6b:6e:a2:94:9a:b6:2c:87:6d:b8:34:7e:8b:
                    e9:0e:f1:c9:43:8a:2b:89:8f:b6:e8:f1:2a:60:ab:
                    75:9b:49:ae:d8:99:2c:84:39:d3:b1:6c:72:b4:2e:
                    9d:1c:e6:b3:b5:d4:5b:4d:a0:7f:fd:7a:de:86:ee:
                    58:75:93:06:c4:69:1b:7f:d2:b6:cc:84:a1:86:e3:
                    cc:5f:ed:7d:c4:c1:b4:b1:9b:20:84:8e:3f:c0:33:
                    16:46:1c:12:41:e8:de:82:03:86:18:f6:5a:7e:69:
                    91:32:10:70:38:f2:ee:03:64:7b:59:05:72:11:d7:
                    e7:50:00:77:e8:84:a9:93:90:55:1b:8e:fe:96:d9:
                    cb:3f:30:b1:a5:7a:a7:de:9d:76:da:e8:7c:9a:d1:
                    f5:42:25:0c:39:5c:34:23:8e:95:7f:36:94:62:50:
                    28:42:bd:2a:9e:06:34:93:c5:60:fd:6a:4f:e7:17:
                    98:ea:a9:48:85:dd:7d:2f:86:ae:89:15:57:71:b8:
                    5b:f0:b7:6a:6e:1c:68:e1:d2:6a:75:2a:de:fb:9a:
                    2f:66:31:d9:e1:83:50:fc:af:a2:cd:64:8e:cf:9c:
                    81:5a:b2:d4:82:d9:68:6e:08:58:01:81:43:2a:20:
                    41:aa:0d:67:60:70:13:0a:e4:e5:fd:f6:7e:e8:ba:
                    30:81:0e:91:3e:c2:f1:f2:b2:d5:f3:31:3f:e9:e1:
                    c0:f5:e5:d4:83:4b:f5:22:f7:1b:fe:7f:ad:6e:39:
                    75:68:6a:88:e8:29:f6:de:b9:bb:3a:fb:05:81:87:
                    bb:90:67:b9:2c:05:67:d8:70:8f:ad:80:b7:57:59:
                    63:67:7c:0f:a1:47:4b:f3:5f:65:bf:25:70:ff:26:
                    3b:23:ff:5c:11:19:32:00:2e:50:a6:a4:2d:01:46:
                    5c:17:5a:57:25:d5:b6:de:17:af:97:d4:33:30:7a:
                    6d:df:fd:1b:d5:42:ea:fe:a9:80:11:4a:cd:27:9f:
                    8c:81:4f:e1:9d:60:03:ad:95:b4:f0:b0:83:c7:4e:
                    13:bd:64:2a:7a:05:6d:73:69:e8:62:bc:5f:66:ae:
                    0f:41:44:91:73:6a:f7:28:2d:16:9b:84:c3:24:90:
                    9f:3d:24:da:ad:d6:6a:8c:6f:6d:2d:d2:c9:b2:f6:
                    a3:ca:87
                Exponent: 65537 (0x10001)
        X509v3 extensions:
            X509v3 Subject Key Identifier: 
                B9:06:C9:40:43:87:2C:63:98:23:2B:C0:74:08:86:97:CC:19:F2:F0
            X509v3 Authority Key Identifier: 
                keyid:B9:06:C9:40:43:87:2C:63:98:23:2B:C0:74:08:86:97:CC:19:F2:F0

            X509v3 Basic Constraints: critical
                CA:TRUE
            X509v3 Key Usage: critical
                Digital Signature, Certificate Sign, CRL Sign
    Signature Algorithm: sha256WithRSAEncryption
         5c:5c:d1:c1:4f:62:9f:1b:49:8a:20:44:40:8e:b6:be:a9:ca:
         a5:62:fd:0e:2d:86:72:e5:bf:34:fd:df:75:04:e4:87:49:0b:
         30:a5:2f:6d:ae:03:49:99:99:66:8d:06:3f:ad:72:ed:b2:ac:
         3f:66:c6:54:65:3d:33:15:84:ee:f0:4a:eb:9d:60:5c:f2:5d:
         dc:cd:11:2f:18:10:ba:b2:aa:68:54:4c:1b:b0:1e:98:01:af:
         41:bd:6f:38:3e:4a:67:c9:c3:fe:53:7c:33:57:51:f7:68:96:
         f1:c4:2e:2f:19:a0:7d:cd:c6:b1:94:5f:b6:f0:78:dd:5c:18:
         e6:61:bb:f8:5f:f3:13:8b:ae:19:b1:a6:4a:af:d5:d8:b9:50:
         3d:e1:01:6a:4a:d7:17:8c:b7:b8:96:f8:47:d9:24:60:cb:08:
         69:db:dd:5f:fc:f4:f2:ec:b0:5b:2f:3d:8e:ba:9a:ef:a9:9f:
         fc:66:f2:51:30:87:c0:bd:74:0b:12:7e:8d:55:7b:db:b2:1a:
         f3:90:0f:38:48:99:c7:66:16:b2:60:e7:6b:f6:4c:4d:06:ea:
         6a:a4:63:d5:56:d5:cf:a1:a9:8e:d4:be:b6:db:e9:09:e8:cf:
         03:6a:37:ea:40:fa:cf:41:3f:55:b1:72:99:11:53:9b:d8:0e:
         7e:a5:9a:98:55:a4:8a:bd:4a:5d:22:e4:f8:ff:5d:eb:03:7c:
         d9:d0:71:1c:a3:de:a2:1f:4c:81:5d:4e:db:bd:83:26:4d:41:
         06:6c:2d:ce:96:a7:47:1e:d8:67:eb:5b:53:44:9f:ab:92:66:
         00:31:c2:9c:1a:2f:2b:f5:df:75:f3:68:19:f9:53:87:a5:b5:
         7f:77:0b:52:08:22:b7:3a:b6:ea:cb:af:dd:0b:69:21:4c:3d:
         7e:b6:7a:ab:15:4e:1c:93:f4:31:af:04:e7:f1:25:c8:ac:a9:
         73:1e:be:24:c2:1f:a6:21:59:3b:a7:73:2f:25:05:70:21:f3:
         79:ab:67:c4:13:28:85:3c:e3:76:80:5f:2f:be:af:3a:1e:8c:
         c2:be:eb:06:92:45:cd:08:bf:d4:7f:92:dd:50:65:e9:42:49:
         1b:4c:5c:32:f9:95:f8:4b:49:76:7f:88:33:e9:04:3d:d8:7a:
         d6:5b:73:a6:bb:23:15:db:f9:93:fd:bd:d1:57:af:57:50:14:
         c2:43:39:f8:7c:37:68:c2:3c:6d:45:21:48:7f:01:98:8c:90:
         37:ea:76:e3:22:8e:8c:32:64:35:1e:d1:9c:5e:22:b4:26:85:
         af:d2:06:2a:41:1e:2e:5a:8f:7c:e4:2c:09:45:d2:32:3f:b3:
         6a:5e:19:d0:d8:ad:8c:de
-----BEGIN CERTIFICATE-----
MIIF+zCCA+OgAwIBAgIQZ4f6LnMukHUfLj/JNGX8kDANBgkqhkiG9w0BAQsFADCB
hjELMAkGA1UEBhMCQ04xEjAQBgNVBAgMCUd1YW5nZG9uZzEOMAwGA1UECgwFWmhh
bmcxFTATBgNVBAsMDFpoYW5nIEx0ZCBDQTEWMBQGA1UEAwwNWmhhbmcgUm9vdCBD
QTEkMCIGCSqGSIb3DQEJARYVZ2Fvc2FuZGFqaWFuZ0AxNjMuY29tMB4XDTE5MTAy
ODA4MjkzN1oXDTM5MTAyMzA4MjkzN1owgYYxCzAJBgNVBAYTAkNOMRIwEAYDVQQI
DAlHdWFuZ2RvbmcxDjAMBgNVBAoMBVpoYW5nMRUwEwYDVQQLDAxaaGFuZyBMdGQg
Q0ExFjAUBgNVBAMMDVpoYW5nIFJvb3QgQ0ExJDAiBgkqhkiG9w0BCQEWFWdhb3Nh
bmRhamlhbmdAMTYzLmNvbTCCAiIwDQYJKoZIhvcNAQEBBQADggIPADCCAgoCggIB
ALO3iGHgC4xqJadXNBPD6N3cZrLDTxyVFCpcXMmwCPnBAf9M/ykpst82hO2rx7V1
FyxVNV4C74hzYfrZmlPDbu+SU69G1gIS5uKiMAtrbqKUmrYsh224NH6L6Q7xyUOK
K4mPtujxKmCrdZtJrtiZLIQ507FscrQunRzms7XUW02gf/163obuWHWTBsRpG3/S
tsyEoYbjzF/tfcTBtLGbIISOP8AzFkYcEkHo3oIDhhj2Wn5pkTIQcDjy7gNke1kF
chHX51AAd+iEqZOQVRuO/pbZyz8wsaV6p96ddtrofJrR9UIlDDlcNCOOlX82lGJQ
KEK9Kp4GNJPFYP1qT+cXmOqpSIXdfS+GrokVV3G4W/C3am4caOHSanUq3vuaL2Yx
2eGDUPyvos1kjs+cgVqy1ILZaG4IWAGBQyogQaoNZ2BwEwrk5f32fui6MIEOkT7C
8fKy1fMxP+nhwPXl1INL9SL3G/5/rW45dWhqiOgp9t65uzr7BYGHu5BnuSwFZ9hw
j62At1dZY2d8D6FHS/NfZb8lcP8mOyP/XBEZMgAuUKakLQFGXBdaVyXVtt4Xr5fU
MzB6bd/9G9VC6v6pgBFKzSefjIFP4Z1gA62VtPCwg8dOE71kKnoFbXNp6GK8X2au
D0FEkXNq9ygtFpuEwySQnz0k2q3WaoxvbS3SybL2o8qHAgMBAAGjYzBhMB0GA1Ud
DgQWBBS5BslAQ4csY5gjK8B0CIaXzBny8DAfBgNVHSMEGDAWgBS5BslAQ4csY5gj
K8B0CIaXzBny8DAPBgNVHRMBAf8EBTADAQH/MA4GA1UdDwEB/wQEAwIBhjANBgkq
hkiG9w0BAQsFAAOCAgEAXFzRwU9inxtJiiBEQI62vqnKpWL9Di2GcuW/NP3fdQTk
h0kLMKUvba4DSZmZZo0GP61y7bKsP2bGVGU9MxWE7vBK651gXPJd3M0RLxgQurKq
aFRMG7AemAGvQb1vOD5KZ8nD/lN8M1dR92iW8cQuLxmgfc3GsZRftvB43VwY5mG7
+F/zE4uuGbGmSq/V2LlQPeEBakrXF4y3uJb4R9kkYMsIadvdX/z08uywWy89jrqa
76mf/GbyUTCHwL10CxJ+jVV727Ia85APOEiZx2YWsmDna/ZMTQbqaqRj1VbVz6Gp
jtS+ttvpCejPA2o36kD6z0E/VbFymRFTm9gOfqWamFWkir1KXSLk+P9d6wN82dBx
HKPeoh9MgV1O272DJk1BBmwtzpanRx7YZ+tbU0Sfq5JmADHCnBovK/XfdfNoGflT
h6W1f3cLUggitzq26suv3QtpIUw9frZ6qxVOHJP0Ma8E5/ElyKypcx6+JMIfpiFZ
O6dzLyUFcCHzeatnxBMohTzjdoBfL76vOh6Mwr7rBpJFzQi/1H+S3VBl6UJJG0xc
MvmV+EtJdn+IM+kEPdh61ltzprsjFdv5k/290VevV1AUwkM5+Hw3aMI8bUUhSH8B
mIyQN+p24yKOjDJkNR7RnF4itCaFr9IGKkEeLlqPfOQsCUXSMj+zal4Z0NitjN4=
-----END CERTIFICATE-----
